; Function Attrs: mustprogress uwtable
define hidden void @_ZNK3ue222ComponentCondReference6acceptERNS_21ConstComponentVisitorE(ptr noundef nonnull align 8 dereferenceable(137) %this, ptr noundef nonnull align 8 dereferenceable(8) %v) unnamed_addr #0 align 2 {
entry:
  %vtable = load ptr, ptr %v, align 8
  %vfn = getelementptr inbounds i8, ptr %vtable, i64 72
  %0 = load ptr, ptr %vfn, align 8
  tail call void %0(ptr noundef nonnull align 8 dereferenceable(8) %v, ptr noundef nonnull align 8 dereferenceable(137) %this)
  %kind = getelementptr inbounds i8, ptr %this, i64 88
  %1 = load i32, ptr %kind, align 8
  %cmp = icmp eq i32 %1, 2
  br i1 %cmp, label %if.then, label %if.end

if.then:                                          ; preds = %entry
  %assertion = getelementptr inbounds i8, ptr %this, i64 128
  %2 = load ptr, ptr %assertion, align 8
  %vtable2 = load ptr, ptr %2, align 8
  %vfn3 = getelementptr inbounds i8, ptr %vtable2, i64 32
  %3 = load ptr, ptr %vfn3, align 8
  tail call void %3(ptr noundef nonnull align 8 dereferenceable(16) %2, ptr noundef nonnull align 8 dereferenceable(8) %v)
  %vtable4 = load ptr, ptr %v, align 8
  %vfn5 = getelementptr inbounds i8, ptr %vtable4, i64 184
  %4 = load ptr, ptr %vfn5, align 8
  tail call void %4(ptr noundef nonnull align 8 dereferenceable(8) %v, ptr noundef nonnull align 8 dereferenceable(137) %this)
  br label %if.end

if.end:                                           ; preds = %if.then, %entry
  %children = getelementptr inbounds i8, ptr %this, i64 16
  %5 = load ptr, ptr %children, align 8
  %_M_finish.i = getelementptr inbounds i8, ptr %this, i64 24
  %6 = load ptr, ptr %_M_finish.i, align 8
  %cmp.i.not11 = icmp eq ptr %5, %6
  br i1 %cmp.i.not11, label %for.end, label %for.body.preheader

for.body.preheader:                               ; preds = %if.end
  %7 = load ptr, ptr %5, align 8
  %vtable1313 = load ptr, ptr %7, align 8
  %vfn1414 = getelementptr inbounds i8, ptr %vtable1313, i64 32
  %8 = load ptr, ptr %vfn1414, align 8
  tail call void %8(ptr noundef nonnull align 8 dereferenceable(16) %7, ptr noundef nonnull align 8 dereferenceable(8) %v)
  %add.ptr.i15 = getelementptr inbounds i8, ptr %5, i64 8
  %cmp.i6.not16 = icmp eq ptr %add.ptr.i15, %6
  br i1 %cmp.i6.not16, label %for.end, label %for.inc

for.inc:                                          ; preds = %for.body.preheader, %for.inc
  %add.ptr.i17 = phi ptr [ %add.ptr.i, %for.inc ], [ %add.ptr.i15, %for.body.preheader ]
  %vtable19 = load ptr, ptr %v, align 8
  %vfn20 = getelementptr inbounds i8, ptr %vtable19, i64 184
  %9 = load ptr, ptr %vfn20, align 8
  tail call void %9(ptr noundef nonnull align 8 dereferenceable(8) %v, ptr noundef nonnull align 8 dereferenceable(137) %this)
  %10 = load ptr, ptr %add.ptr.i17, align 8
  %vtable13 = load ptr, ptr %10, align 8
  %vfn14 = getelementptr inbounds i8, ptr %vtable13, i64 32
  %11 = load ptr, ptr %vfn14, align 8
  tail call void %11(ptr noundef nonnull align 8 dereferenceable(16) %10, ptr noundef nonnull align 8 dereferenceable(8) %v)
  %add.ptr.i = getelementptr inbounds i8, ptr %add.ptr.i17, i64 8
  %cmp.i6.not = icmp eq ptr %add.ptr.i, %6
  br i1 %cmp.i6.not, label %for.end, label %for.inc

for.end:                                          ; preds = %for.inc, %for.body.preheader, %if.end
  %vtable23 = load ptr, ptr %v, align 8
  %vfn24 = getelementptr inbounds i8, ptr %vtable23, i64 296
  %12 = load ptr, ptr %vfn24, align 8
  tail call void %12(ptr noundef nonnull align 8 dereferenceable(8) %v, ptr noundef nonnull align 8 dereferenceable(137) %this)
  ret void
}